; Function Attrs: mustprogress nounwind uwtable
define dso_local void @_ZN4llvm14PassNameParserC2ERNS_2cl6OptionE(ptr noundef nonnull align 8 dereferenceable(488) initializes((0, 24)) %0, ptr noundef nonnull align 8 dereferenceable(128) %1) unnamed_addr #0 align 2 {
  store ptr getelementptr inbounds nuw inrange(-16, 32) (i8, ptr @_ZTVN4llvm24PassRegistrationListenerE, i64 16), ptr %0, align 8
  %3 = getelementptr inbounds nuw i8, ptr %0, i64 8
  %4 = getelementptr inbounds nuw i8, ptr %0, i64 16
  store ptr %1, ptr %4, align 8
  store ptr getelementptr inbounds nuw inrange(-16, 64) (i8, ptr @_ZTVN4llvm2cl6parserIPKNS_8PassInfoEEE, i64 16), ptr %3, align 8
  %5 = getelementptr inbounds nuw i8, ptr %0, i64 24
  %6 = getelementptr inbounds nuw i8, ptr %0, i64 40
  tail call void @_ZN4llvm15SmallVectorBaseIjEC2EPvm(ptr noundef nonnull align 8 dereferenceable(464) %5, ptr noundef nonnull %6, i64 noundef 8) #17
  store ptr getelementptr inbounds nuw inrange(-16, 48) (i8, ptr @_ZTVN4llvm14PassNameParserE, i64 16), ptr %0, align 8
  store ptr getelementptr inbounds nuw inrange(-16, 64) (i8, ptr @_ZTVN4llvm14PassNameParserE, i64 80), ptr %3, align 8
  %7 = tail call noundef ptr @_ZN4llvm12PassRegistry15getPassRegistryEv() #17
  tail call void @_ZN4llvm12PassRegistry23addRegistrationListenerEPNS_24PassRegistrationListenerE(ptr noundef nonnull align 8 dereferenceable(160) %7, ptr noundef nonnull %0) #17
  ret void
}